; Function Attrs: nounwind sspstrong uwtable
define dso_local void @tcg_gen_vec_rotl16i_i64(ptr noundef %0, ptr noundef %1, i64 noundef %2) #2 {
  %4 = trunc i64 %2 to i32
  %5 = shl i32 65535, %4
  %6 = and i32 %5, 65535
  %7 = zext nneg i32 %6 to i64
  %8 = mul nuw i64 %7, 281479271743489
  tail call void @tcg_gen_shli_i64(ptr noundef %0, ptr noundef %1, i64 noundef %2) #10
  %9 = sub i64 16, %2
  tail call void @tcg_gen_shri_i64(ptr noundef %1, ptr noundef %1, i64 noundef %9) #10
  tail call void @tcg_gen_andi_i64(ptr noundef %0, ptr noundef %0, i64 noundef %8) #10
  %10 = xor i64 %8, -1
  tail call void @tcg_gen_andi_i64(ptr noundef %1, ptr noundef %1, i64 noundef %10) #10
  tail call void @tcg_gen_or_i64(ptr noundef %0, ptr noundef %0, ptr noundef %1) #10
  ret void
}